(dp1
Vclicked
p2
(dp3
I512
I11
sI0
I113
sI2
I112
sI3
I4
sI5
I18
sI7
I17
sI9
I12
sI10
I44
sI11
I56
sI12
I2
sI13
I51
sI14
I407
sI15
I38
sI16
I111
sI17
I2
sI18
I5
sI20
I13
sI21
I10
sI89
I10
sI24
I18
sI25
I8
sI26
I46
sI28
I176
sI29
I92
sI30
I84
sI32
I48
sI33
I65
sI34
I91
sI35
I11
sI36
I80
sI37
I13
sI38
I4
sI39
I9
sI40
I61
sI43
I9
sI44
I31
sI558
I40
sI47
I3
sI560
I1
sI562
I6
sI51
I4
sI52
I86
sI570
I4
sI522
I5
sI65
I3
sI68
I16
sI71
I41
sI584
I1
sI73
I45
sI74
I4
sI75
I6
sI76
I1
sI78
I61
sI592
I1
sI83
I6
sI596
I2
sI526
I1
sI86
I1
sI88
I6
sI612
I1
sI91
I204
sI92
I6
sI93
I67
sI606
I4
sI95
I1
sI96
I3
sI97
I40
sI98
I12
sI99
I29
sI100
I43
sI101
I52
sI614
I2
sI105
I4
sI618
I4
sI620
I4
sI110
I5
sI624
I4
sI113
I1
sI115
I14
sI117
I3
sI118
I397
sI119
I20
sI121
I176
sI124
I93
sI128
I41
sI132
I30
sI138
I29
sI23
I9
sI141
I36
sI143
I3
sI148
I171
sI149
I5
sI150
I1
sI670
I2
sI161
I114
sI164
I53
sI167
I284
sI168
I77
sI540
I2
sI170
I43
sI171
I12
sI172
I8
sI173
I1
sI174
I100
sI177
I28
sI178
I1
sI180
I5
sI182
I1
sI184
I3
sI185
I7
sI187
I43
sI532
I1
sI552
I2
sI209
I1
sI210
I1
sI214
I3
sI215
I32
sI548
I2
sI218
I9
sI220
I38
sI223
I14
sI224
I16
sI229
I9
sI230
I18
sI231
I40
sI238
I1
sI240
I51
sI241
I23
sI245
I19
sI246
I26
sI247
I63
sI248
I1
sI250
I17
sI251
I1349
sI252
I2
sI253
I20
sI254
I1
sI255
I22
sI256
I27
sI257
I17
sI258
I239
sI259
I9
sI260
I31
sI261
I203
sI262
I1
sI263
I6
sI265
I22
sI266
I9
sI267
I7
sI269
I11
sI270
I3
sI272
I6
sI274
I97
sI278
I68
sI282
I23
sI284
I44
sI288
I11
sI294
I3
sI300
I1
sI318
I3
sI328
I9
sI340
I7
sI342
I1
sI344
I13
sI348
I7
sI354
I2
sI360
I1
sI362
I7
sI364
I17
sI366
I3
sI368
I10
sI370
I4
sI374
I2
sI376
I3
sI378
I2
sI382
I5
sI386
I4
sI388
I15
sI394
I35
sI400
I17
sI406
I3
sI410
I30
sI420
I14
sI422
I2
sI424
I29
sI426
I18
sI430
I9
sI432
I57
sI436
I5
sI438
I12
sI440
I90
sI442
I5
sI444
I175
sI448
I5
sI452
I3
sI454
I21
sI458
I16
sI460
I12
sI462
I1
sI464
I6
sI466
I16
sI468
I22
sI590
I1
sI476
I35
sI478
I9
sI480
I16
sI488
I2
sI490
I5
sI492
I6
sI494
I5
sI496
I10
sI498
I11
sI500
I8
sI502
I12
sI504
I1
sI508
I2
sI510
I6
sI85
I1
ss.