(dp1
Vclicked
p2
(dp3
I512
I7
sI0
I52
sI2
I38
sI3
I2
sI5
I9
sI7
I11
sI9
I10
sI10
I10
sI11
I26
sI12
I2
sI13
I25
sI14
I198
sI15
I19
sI16
I77
sI17
I1
sI18
I4
sI20
I7
sI21
I4
sI23
I4
sI24
I11
sI25
I8
sI26
I12
sI28
I78
sI29
I28
sI30
I38
sI32
I29
sI33
I18
sI34
I43
sI35
I4
sI36
I29
sI37
I7
sI38
I1
sI39
I7
sI40
I17
sI43
I3
sI44
I8
sI558
I21
sI47
I1
sI562
I3
sI51
I4
sI52
I42
sI522
I3
sI65
I1
sI68
I6
sI71
I8
sI73
I5
sI74
I2
sI75
I1
sI78
I32
sI592
I1
sI83
I4
sI596
I1
sI85
I1
sI88
I2
sI89
I4
sI91
I113
sI92
I4
sI93
I29
sI606
I1
sI95
I1
sI96
I1
sI97
I24
sI98
I5
sI99
I17
sI100
I15
sI101
I23
sI618
I3
sI620
I2
sI110
I3
sI624
I2
sI115
I5
sI117
I2
sI118
I238
sI119
I8
sI121
I89
sI124
I57
sI128
I23
sI132
I6
sI138
I17
sI141
I11
sI143
I2
sI148
I81
sI149
I2
sI150
I1
sI670
I2
sI161
I57
sI164
I22
sI167
I132
sI168
I52
sI540
I2
sI170
I26
sI171
I9
sI172
I5
sI174
I32
sI177
I14
sI178
I1
sI180
I2
sI182
I1
sI184
I2
sI185
I5
sI187
I27
sI209
I1
sI210
I1
sI214
I1
sI215
I32
sI548
I1
sI218
I3
sI220
I20
sI223
I6
sI224
I10
sI229
I5
sI230
I6
sI231
I20
sI238
I1
sI240
I19
sI552
I2
sI245
I5
sI246
I14
sI247
I20
sI248
I1
sI250
I13
sI251
I389
sI252
I1
sI253
I12
sI255
I14
sI256
I17
sI257
I9
sI258
I47
sI259
I8
sI260
I23
sI261
I91
sI262
I1
sI263
I5
sI265
I7
sI266
I6
sI267
I2
sI269
I5
sI270
I1
sI272
I4
sI274
I44
sI278
I37
sI282
I17
sI284
I22
sI288
I9
sI294
I2
sI300
I1
sI318
I1
sI328
I1
sI340
I6
sI342
I1
sI344
I5
sI348
I5
sI360
I1
sI362
I3
sI364
I13
sI368
I3
sI370
I1
sI376
I3
sI378
I2
sI382
I3
sI386
I4
sI388
I6
sI394
I24
sI400
I11
sI406
I1
sI410
I13
sI420
I3
sI241
I2
sI424
I22
sI426
I6
sI430
I6
sI432
I28
sI436
I3
sI438
I3
sI440
I39
sI442
I2
sI444
I84
sI448
I3
sI452
I1
sI454
I13
sI458
I8
sI460
I4
sI462
I1
sI464
I3
sI466
I6
sI468
I15
sI476
I15
sI478
I8
sI480
I12
sI490
I1
sI492
I3
sI494
I3
sI496
I4
sI498
I4
sI500
I2
sI502
I8
sI504
I1
sI508
I1
sI510
I2
ss.