(dp1
L1L
(dp2
S'parent_id'
p3
NsS'slug'
p4
Vroot-node
p5
ssL2L
(dp6
g3
L144L
sg4
Vvisite-guidee
p7
ssL3L
(dp8
g3
L144L
sg4
Vmonument
p9
ssL4L
(dp10
g3
L144L
sg4
Vtour-en-voiture
p11
ssL5L
(dp12
g3
L2L
sg4
Vvisite-en-bus
p13
ssL6L
(dp14
g3
L2L
sg4
Vtour-en-helicoptere
p15
ssL7L
(dp16
g3
L2L
sg4
Vmontgolfiere
p17
ssL9L
(dp18
g3
L12L
sg4
Vdanse
p19
ssL10L
(dp20
g3
L96L
sg4
Vopera
p21
ssL11L
(dp22
g3
L96L
sg4
Vcomedie-musicale
p23
ssL12L
(dp24
g3
L330L
sg4
Vspectacle
p25
ssL13L
(dp26
g3
L96L
sg4
Vconcert
p27
ssL14L
(dp28
g3
L212L
sg4
Vsoiree-dansante
p29
ssL15L
(dp30
g3
L16L
sg4
Vone-man-show
p31
ssL16L
(dp32
g3
L12L
sg4
Vtheatre
p33
ssL17L
(dp34
g3
L16L
sg4
Vcafe-theatre
p35
ssL18L
(dp36
g3
L196L
sg4
Vbowling
p37
ssL19L
(dp38
g3
L330L
sg4
Vcompetition
p39
ssL20L
(dp40
g3
L131L
sg4
Vmatch-de-foot
p41
ssL21L
(dp42
g3
L131L
sg4
Vmatch-de-rugby
p43
ssL22L
(dp44
g3
L131L
sg4
Vcourse-hippique
p45
ssL23L
(dp46
g3
L131L
sg4
Vtournoi-de-tennis
p47
ssL24L
(dp48
g3
L330L
sg4
Vrencontre
p49
ssL25L
(dp50
g3
L330L
sg4
Vfestival
p51
ssL26L
(dp52
g3
L42L
sg4
Vfoire
p53
ssL28L
(dp54
g3
L330L
sg4
Vexposition
p55
ssL29L
(dp56
g3
L24L
sg4
Vsalon
p57
ssL30L
(dp58
g3
L24L
sg4
Vconference-debat
p59
ssL31L
(dp60
g3
L310L
sg4
V1-4
p61
ssL32L
(dp62
g3
L51L
sg4
Vdegustation
p63
ssL33L
(dp64
g3
L215L
sg4
Vequitation
p65
ssL34L
(dp66
g3
L100L
sg4
Vrandonnee-pedestre
p67
ssL35L
(dp68
g3
L215L
sg4
Vpromenade-a-velo
p69
ssL36L
(dp70
g3
L144L
sg4
Vmusee
p71
ssL37L
(dp72
g3
L86L
sg4
Vparc-de-loisirs
p73
ssL38L
(dp74
g3
L37L
sg4
Vparc-aquatique
p75
ssL39L
(dp76
g3
L330L
sg4
Vremise-en-forme
p77
ssL40L
(dp78
g3
L39L
sg4
Vspa
p79
ssL41L
(dp80
g3
L39L
sg4
Vhammam
p81
ssL42L
(dp82
g3
L330L
sg4
Vachat-vente
p83
ssL43L
(dp84
g3
L42L
sg4
Vbrocante
p85
ssL44L
(dp86
g3
L47L
sg4
Vmarche-aux-puces
p87
ssL45L
(dp88
g3
L42L
sg4
Vtroc
p89
ssL46L
(dp90
g3
L102L
sg4
Vcours
p91
ssL47L
(dp92
g3
L42L
sg4
Vmarche
p93
ssL48L
(dp94
g3
L193L
sg4
Vlieu-d-activite
p95
ssL51L
(dp96
g3
L330L
sg4
Vatelier
p97
ssL52L
(dp98
g3
L12L
sg4
Vcirque
p99
ssL65L
(dp100
g3
L131L
sg4
Vmatch-de-hockey
p101
ssL68L
(dp102
g3
L221L
sg4
Vpatinage
p103
ssL69L
(dp104
g3
L193L
sg4
Vhors-champ
p105
ssL70L
(dp106
g3
L37L
sg4
Vparc-de-jeux-interieur
p107
ssL71L
(dp108
g3
L37L
sg4
Vaccrobranche
p109
ssL72L
(dp110
g3
L73L
sg4
Vaquarium
p111
ssL73L
(dp112
g3
L37L
sg4
Vparc-animalier
p113
ssL74L
(dp114
g3
L314L
sg4
Vkarting
p115
ssL75L
(dp116
g3
L264L
sg4
Vescalade
p117
ssL76L
(dp118
g3
L215L
sg4
Vminigolf
p119
ssL77L
(dp120
g3
L196L
sg4
Vskate
p121
ssL78L
(dp122
g3
L9L
sg4
Vballet
p123
ssL81L
(dp124
g3
L310L
sg4
V1-2
p125
ssL83L
(dp126
g3
L144L
sg4
Vvisite-dentreprise
p127
ssL85L
(dp128
g3
L386L
sg4
Vmediatheque
p129
ssL86L
(dp130
g3
L330L
sg4
Vloisirs
p131
ssL87L
(dp132
g3
L536L
sg4
Vparc-des-expositions
p133
ssL88L
(dp134
g3
L560L
sg4
Vsalle-de-concert
p135
ssL89L
(dp136
g3
L213L
sg4
Vlocation-de-quad
p137
ssL90L
(dp138
g3
L147L
sg4
Vclub-sportif
p139
ssL91L
(dp140
g3
L51L
sg4
Vatelier-cuisine
p141
ssL92L
(dp142
g3
L560L
sg4
Vtheatre-1
p143
ssL93L
(dp144
g3
L96L
sg4
Vchant
p145
ssL94L
(dp146
g3
L216L
sg4
Vbase-nautique
p147
ssL95L
(dp148
g3
L217L
sg4
Vcompetition-de-natation
p149
ssL96L
(dp150
g3
L12L
sg4
Vspectacle-musical
p151
ssL97L
(dp152
g3
L210L
sg4
Vconte
p153
ssL98L
(dp154
g3
L51L
sg4
Vatelier-musical
p155
ssL99L
(dp156
g3
L227L
sg4
Vexposition-art-contemporain
p157
ssL100L
(dp158
g3
L215L
sg4
Vmarche-a-pied
p159
ssL101L
(dp160
g3
L3L
sg4
Vchateau
p161
ssL102L
(dp162
g3
L330L
sg4
Vactivites-recurrentes
p163
ssL103L
(dp164
g3
L46L
sg4
Vcours-de-dessin
p165
ssL104L
(dp166
g3
L51L
sg4
Vatelier-sportif
p167
ssL105L
(dp168
g3
L46L
sg4
Vcours-de-natation
p169
ssL106L
(dp170
g3
L165L
sg4
Vstage-de-vacance
p171
ssL107L
(dp172
g3
L147L
sg4
Vclub-scientifique
p173
ssL108L
(dp174
g3
L46L
sg4
Vcours-de-musique
p175
ssL110L
(dp176
g3
L46L
sg4
Vcours-de-langue
p177
ssL111L
(dp178
g3
L102L
sg4
Vecole-de-cirque
p179
ssL113L
(dp180
g3
L196L
sg4
Vroller
p181
ssL114L
(dp182
g3
L147L
sg4
Vclub-nature
p183
ssL115L
(dp184
g3
L46L
sg4
Vcours-de-theatre
p185
ssL117L
(dp186
g3
L386L
sg4
Vmaison-de-la-culture
p187
ssL118L
(dp188
g3
L12L
sg4
Vspectacle-humour
p189
ssL119L
(dp190
g3
L12L
sg4
Vprestidigitation
p191
ssL121L
(dp192
g3
L51L
sg4
Vatelier-creatif
p193
ssL122L
(dp194
g3
L102L
sg4
Vcentre-de-loisirs
p195
ssL124L
(dp196
g3
L250L
sg4
Vcours-de-danse
p197
ssL125L
(dp198
g3
L51L
sg4
Vatelier-decouverte
p199
ssL127L
(dp200
g3
L69L
sg4
Vboutique
p201
ssL128L
(dp202
g3
L194L
sg4
Vrestaurant
p203
ssL129L
(dp204
g3
L69L
sg4
Vcentre-dinformation
p205
ssL131L
(dp206
g3
L19L
sg4
Vcompetition-sportive
p207
ssL132L
(dp208
g3
L196L
sg4
Vcourse-a-pied
p209
ssL134L
(dp210
g3
L48L
sg4
Vlieu-d-enseignement
p211
ssL135L
(dp212
g3
L51L
sg4
Vatelier-artistique
p213
ssL136L
(dp214
g3
L147L
sg4
Vclub-artistique
p215
ssL138L
(dp216
g3
L28L
sg4
Vexposition-photographique
p217
ssL139L
(dp218
g3
L13L
sg4
Vconcert-de-musique-contemporaine
p219
ssL140L
(dp220
g3
L310L
sg4
V1-5
p221
ssL141L
(dp222
g3
L16L
sg4
Vmarionnettes
p223
ssL143L
(dp224
g3
L69L
sg4
Vanniversaires-pour-enfant
p225
ssL144L
(dp226
g3
L330L
sg4
Vvisite
p227
ssL146L
(dp228
g3
L310L
sg4
V1-3
p229
ssL147L
(dp230
g3
L102L
sg4
Vclub
p231
ssL148L
(dp232
g3
L227L
sg4
Vexposition-de-peinture
p233
ssL149L
(dp234
g3
L51L
sg4
Vatelier-scientifique
p235
ssL150L
(dp236
g3
L48L
sg4
Vlieu-d-evenement-sportif
p237
ssL152L
(dp238
g3
L330L
sg4
Vparc
p239
ssL161L
(dp240
g3
L144L
sg4
Vvisite-de-ferme
p241
ssL162L
(dp242
g3
L28L
sg4
Vexposition-de-bateaux
p243
ssL163L
(dp244
g3
L108L
sg4
Vcours-de-percussions
p245
ssL164L
(dp246
g3
L69L
sg4
Vmarche-alimentaire
p247
ssL165L
(dp248
g3
L330L
sg4
Vstage
p249
ssL166L
(dp250
g3
L165L
sg4
Vstage-photo
p251
ssL167L
(dp252
g3
L13L
sg4
Vconcert-de-musique-classique
p253
ssL168L
(dp254
g3
L13L
sg4
Vconcert-pop-rock
p255
ssL169L
(dp256
g3
L13L
sg4
Vconcert-r-b
p257
ssL170L
(dp258
g3
L13L
sg4
Vconcert-jazz
p259
ssL171L
(dp260
g3
L25L
sg4
Vfestival-de-musique
p261
ssL172L
(dp262
g3
L25L
sg4
Vfestival-litteraire
p263
ssL173L
(dp264
g3
L13L
sg4
Vconcert-de-chanson-francaise
p265
ssL174L
(dp266
g3
L47L
sg4
Vmarche-artisanal
p267
ssL175L
(dp268
g3
L47L
sg4
Vmarche-forain
p269
ssL177L
(dp270
g3
L12L
sg4
Vcinema
p271
ssL178L
(dp272
g3
L51L
sg4
Vatelier-theatre
p273
ssL179L
(dp274
g3
L310L
sg4
V1
ssL180L
(dp275
g3
L144L
sg4
Vsite-archeologique
p276
ssL182L
(dp277
g3
L152L
sg4
Vparc-national
p278
ssL183L
(dp279
g3
L108L
sg4
Veveil-musical
p280
ssL184L
(dp281
g3
L185L
sg4
Vechecs
p282
ssL185L
(dp283
g3
L271L
sg4
Vjeux-de-societe
p284
ssL186L
(dp285
g3
L195L
sg4
Vlocation-de-vacance
p286
ssL187L
(dp287
g3
L221L
sg4
Vraquettes-a-neige
p288
ssL188L
(dp289
g3
L194L
sg4
Vmenu-de-cantine
p290
ssL189L
(dp291
g3
L69L
sg4
Vinformations-administratives
p292
ssL193L
(dp293
g3
L1L
sg4
Vrubric-on
p294
ssL194L
(dp295
g3
L69L
sg4
Vrestauration
p296
ssL195L
(dp297
g3
L69L
sg4
Vhebergement
p298
ssL196L
(dp299
g3
L330L
sg4
Vactivite-sportive
p300
ssL209L
(dp301
g3
L24L
sg4
Vporte-ouverte
p302
ssL210L
(dp303
g3
L12L
sg4
Vspectacle-pour-enfant
p304
ssL211L
(dp305
g3
L262L
sg4
Vsoiree
p306
ssL212L
(dp307
g3
L211L
sg4
Vnight-club
p308
ssL213L
(dp309
g3
L330L
sg4
Vlocation-de-loisir
p310
ssL214L
(dp311
g3
L196L
sg4
Vgolf
p312
ssL215L
(dp313
g3
L86L
sg4
Vloisir-de-plein-air
p314
ssL216L
(dp315
g3
L215L
sg4
Vnautisme
p316
ssL217L
(dp317
g3
L196L
sg4
Vsport-nautique
p318
ssL218L
(dp319
g3
L217L
sg4
Vcanoe-cayak
p320
ssL219L
(dp321
g3
L73L
sg4
Vparc-zoologique
p322
ssL220L
(dp323
g3
L35L
sg4
Vrandonnee-vtt
p324
ssL221L
(dp325
g3
L196L
sg4
Vsport-dhiver
p326
ssL223L
(dp327
g3
L25L
sg4
Vfestival-de-cinema
p328
ssL224L
(dp329
g3
L25L
sg4
Vfestival-humoristique
p330
ssL225L
(dp331
g3
L25L
sg4
Vfestival-de-photographie
p332
ssL226L
(dp333
g3
L25L
sg4
Vfestival-de-theatre
p334
ssL227L
(dp335
g3
L28L
sg4
Vexposition-dart
p336
ssL228L
(dp337
g3
L310L
sg4
V1-1
p338
ssL229L
(dp339
g3
L196L
sg4
Vspeleologie
p340
ssL230L
(dp341
g3
L216L
sg4
Vcroisiere
p342
ssL231L
(dp343
g3
L211L
sg4
Vcabaret
p344
ssL232L
(dp345
g3
L69L
sg4
Vconditions-generales
p346
ssL233L
(dp347
g3
L69L
sg4
Vpage-contact
p348
ssL234L
(dp349
g3
L69L
sg4
Vgarde-denfants
p350
ssL235L
(dp351
g3
L69L
sg4
Vservice-municipal
p352
ssL236L
(dp353
g3
L69L
sg4
Voffice-du-tourisme
p354
ssL238L
(dp355
g3
L13L
sg4
Vconcert-de-musique-traditionelle
p356
ssL239L
(dp357
g3
L28L
sg4
Vexposition-bande-dessinee
p358
ssL240L
(dp359
g3
L16L
sg4
Vtheatre-d-improvisation
p360
ssL241L
(dp361
g3
L42L
sg4
Vvide-grenier
p362
ssL242L
(dp363
g3
L262L
sg4
Vkermesse
p364
ssL243L
(dp365
g3
L195L
sg4
Vhotel
p366
ssL245L
(dp367
g3
L196L
sg4
Vtir-a-l-arc
p368
ssL246L
(dp369
g3
L215L
sg4
Vpeche
p370
ssL247L
(dp371
g3
L3L
sg4
Veglise
p372
ssL248L
(dp373
g3
L51L
sg4
Vatelier-beaute
p374
ssL250L
(dp375
g3
L46L
sg4
Vatelier-danse
p376
ssL251L
(dp377
g3
L47L
sg4
Vmarche-de-noel
p378
ssL252L
(dp379
g3
L217L
sg4
Vski-nautique
p380
ssL253L
(dp381
g3
L215L
sg4
Vpetanque
p382
ssL254L
(dp383
g3
L131L
sg4
Vcompetition-de-golf
p384
ssL255L
(dp385
g3
L227L
sg4
Vexposition-de-sculpture
p386
ssL256L
(dp387
g3
L13L
sg4
Vconcert-rap
p388
ssL257L
(dp389
g3
L12L
sg4
Vparade
p390
ssL258L
(dp391
g3
L262L
sg4
Vloto
p392
ssL259L
(dp393
g3
L196L
sg4
Vvia-ferrata
p394
ssL260L
(dp395
g3
L12L
sg4
Vfeu-d-artifice
p396
ssL261L
(dp397
g3
L262L
sg4
Vfete-de-village
p398
ssL262L
(dp399
g3
L330L
sg4
Vfete
p400
ssL263L
(dp401
g3
L264L
sg4
Vcanyoning
p402
ssL264L
(dp403
g3
L196L
sg4
Vsport-extreme
p404
ssL265L
(dp405
g3
L262L
sg4
Vfete-foraine
p406
ssL266L
(dp407
g3
L326L
sg4
Vlocation-de-vtt
p408
ssL267L
(dp409
g3
L51L
sg4
Vastronomie
p410
ssL268L
(dp411
g3
L46L
sg4
Vcours-de-golf
p412
ssL269L
(dp413
g3
L100L
sg4
Vcourse-d-orientation
p414
ssL270L
(dp415
g3
L196L
sg4
Vcourse-cycliste
p416
ssL271L
(dp417
g3
L86L
sg4
Vjeu-d-interieur
p418
ssL272L
(dp419
g3
L271L
sg4
Vjeux-video
p420
ssL273L
(dp421
g3
L165L
sg4
Vstage-sportif
p422
ssL274L
(dp423
g3
L46L
sg4
Vcours-de-yoga
p424
ssL275L
(dp425
g3
L185L
sg4
Vjeux-de-cartes
p426
ssL278L
(dp427
g3
L13L
sg4
Vconcert-electro
p428
ssL280L
(dp429
g3
L24L
sg4
Vseance-de-dedicaces
p430
ssL282L
(dp431
g3
L13L
sg4
Vconcert-de-reggae
p432
ssL284L
(dp433
g3
L13L
sg4
Vconcert-de-blues
p434
ssL286L
(dp435
g3
L310L
sg4
V1-6
p436
ssL288L
(dp437
g3
L16L
sg4
Vclown
p438
ssL290L
(dp439
g3
L12L
sg4
Vlecture
p440
ssL292L
(dp441
g3
L16L
sg4
Vtheatre-musical
p442
ssL294L
(dp443
g3
L24L
sg4
Vrencontre-litteraire
p444
ssL300L
(dp445
g3
L51L
sg4
Vatelier-d-ecriture
p446
ssL310L
(dp447
g3
L556L
sg4
Va-renommer
p448
ssL312L
(dp449
g3
L221L
sg4
Vski
p450
ssL314L
(dp451
g3
L213L
sg4
Vpilotage-automobile
p452
ssL316L
(dp453
g3
L213L
sg4
Vlocation-de-moto
p454
ssL318L
(dp455
g3
L213L
sg4
Vvol-en-ulm
p456
ssL320L
(dp457
g3
L217L
sg4
Vjet-ski
p458
ssL322L
(dp459
g3
L131L
sg4
Vcompetition-de-trial
p460
ssL324L
(dp461
g3
L213L
sg4
Vmotoneige
p462
ssL326L
(dp463
g3
L213L
sg4
Vlocation-de-velo
p464
ssL328L
(dp465
g3
L312L
sg4
Vski-hors-piste
p466
ssL330L
(dp467
g3
L193L
sg4
Vactivite
p468
ssL340L
(dp469
g3
L13L
sg4
Vhip-hop
p470
ssL342L
(dp471
g3
L28L
sg4
Vexposition-automobile
p472
ssL344L
(dp473
g3
L217L
sg4
Vplongee
p474
ssL346L
(dp475
g3
L39L
sg4
Vfitness
p476
ssL348L
(dp477
g3
L108L
sg4
Vcours-de-guitare
p478
ssL350L
(dp479
g3
L28L
sg4
Vexposition-decoration
p480
ssL352L
(dp481
g3
L350L
sg4
Vexposition-florale
p482
ssL354L
(dp483
g3
L46L
sg4
Vecole-de-voile
p484
ssL356L
(dp485
g3
L354L
sg4
Vplanche-a-voile
p486
ssL358L
(dp487
g3
L217L
sg4
Vrafting
p488
ssL360L
(dp489
g3
L312L
sg4
Vcompetition-ski-de-fond
p490
ssL362L
(dp491
g3
L312L
sg4
Vski-de-nuit
p492
ssL364L
(dp493
g3
L312L
sg4
Vcours-de-ski
p494
ssL366L
(dp495
g3
L312L
sg4
Vski-de-randonnee
p496
ssL368L
(dp497
g3
L364L
sg4
Vcours-de-ski-de-fond
p498
ssL370L
(dp499
g3
L346L
sg4
Vaquafitness
p500
ssL372L
(dp501
g3
L131L
sg4
Vcompetition-de-ski
p502
ssL374L
(dp503
g3
L215L
sg4
Valpinisme
p504
ssL376L
(dp505
g3
L131L
sg4
Vcompetition-de-moto
p506
ssL378L
(dp507
g3
L47L
sg4
Vmarche-aux-livres
p508
ssL382L
(dp509
g3
L131L
sg4
Vmatch-de-basket
p510
ssL384L
(dp511
g3
L69L
sg4
Vparking
p512
ssL386L
(dp513
g3
L48L
sg4
Vlieu-culturel
p514
ssL388L
(dp515
g3
L28L
sg4
Vexposition-animale
p516
ssL390L
(dp517
g3
L13L
sg4
Vconcert-de-varietes
p518
ssL392L
(dp519
g3
L16L
sg4
Vtheatre-contemporain
p520
ssL394L
(dp521
g3
L46L
sg4
Vcours-de-photographie
p522
ssL396L
(dp523
g3
L13L
sg4
Vconcert-amateur
p524
ssL398L
(dp525
g3
L16L
sg4
Vtheatre-d-ombre
p526
ssL400L
(dp527
g3
L13L
sg4
Vconcert-metal
p528
ssL402L
(dp529
g3
L364L
sg4
Vcours-de-snowboard
p530
ssL404L
(dp531
g3
L3L
sg4
Vchapelle
p532
ssL406L
(dp533
g3
L264L
sg4
Vparapente
p534
ssL408L
(dp535
g3
L211L
sg4
Vbal
p536
ssL410L
(dp537
g3
L408L
sg4
Vbal-folk
p538
ssL412L
(dp539
g3
L19L
sg4
Vconcours
p540
ssL414L
(dp541
g3
L412L
sg4
Vconcours-hippique
p542
ssL416L
(dp543
g3
L131L
sg4
Vtournoi-de-badminton
p544
ssL418L
(dp545
g3
L412L
sg4
Vtournoi-de-poker
p546
ssL420L
(dp547
g3
L262L
sg4
Vfete-medievale
p548
ssL422L
(dp549
g3
L131L
sg4
Vhandball
p550
ssL424L
(dp551
g3
L171L
sg4
Vfestival-jazz
p552
ssL426L
(dp553
g3
L257L
sg4
Vcarnaval
p554
ssL428L
(dp555
g3
L211L
sg4
Vdiner
p556
ssL430L
(dp557
g3
L131L
sg4
Vcourse-automobile
p558
ssL432L
(dp559
g3
L100L
sg4
Vmarche-nordique
p560
ssL434L
(dp561
g3
L131L
sg4
Vescrime
p562
ssL436L
(dp563
g3
L312L
sg4
Vbiathlon
p564
ssL438L
(dp565
g3
L70L
sg4
Vlaser-game
p566
ssL440L
(dp567
g3
L13L
sg4
Vconcert-gospel
p568
ssL442L
(dp569
g3
L24L
sg4
Vcongres
p570
ssL444L
(dp571
g3
L211L
sg4
Vdiner-spectacle
p572
ssL446L
(dp573
g3
L28L
sg4
Vexposition-archeologique
p574
ssL448L
(dp575
g3
L24L
sg4
Vformation-professionnelle
p576
ssL450L
(dp577
g3
L46L
sg4
Vcours-de-massage
p578
ssL452L
(dp579
g3
L3L
sg4
Vvisite-de-traboule
p580
ssL454L
(dp581
g3
L152L
sg4
Vjardin-paysager
p582
ssL456L
(dp583
g3
L3L
sg4
Varchitecture
p584
ssL458L
(dp585
g3
L3L
sg4
Vcathedrale
p586
ssL460L
(dp587
g3
L3L
sg4
Vabbaye
p588
ssL462L
(dp589
g3
L46L
sg4
Vconseils-beaute
p590
ssL464L
(dp591
g3
L213L
sg4
Vlocation-segway
p592
ssL466L
(dp593
g3
L3L
sg4
Vcimetiere
p594
ssL468L
(dp595
g3
L108L
sg4
Vcours-de-chant
p596
ssL470L
(dp597
g3
L194L
sg4
Vstreet-food
p598
ssL472L
(dp599
g3
L257L
sg4
Vspectacle-de-rue
p600
ssL474L
(dp601
g3
L42L
sg4
Vobjets-d-occasion
p602
ssL476L
(dp603
g3
L196L
sg4
Vpatinoire
p604
ssL478L
(dp605
g3
L412L
sg4
Vconcours-de-startup
p606
ssL480L
(dp607
g3
L412L
sg4
Vhackathon
p608
ssL488L
(dp609
g3
L131L
sg4
Vmatch-de-volley
p610
ssL490L
(dp611
g3
L131L
sg4
Vgymnastique
p612
ssL492L
(dp613
g3
L88L
sg4
Vauditorium
p614
ssL494L
(dp615
g3
L131L
sg4
Vjudo
p616
ssL496L
(dp617
g3
L90L
sg4
Vcours-de-boxe
p618
ssL498L
(dp619
g3
L152L
sg4
Vjardin-botanique
p620
ssL500L
(dp621
g3
L430L
sg4
Vpilotage-sur-glace
p622
ssL502L
(dp623
g3
L90L
sg4
Vcours-de-gymnastique
p624
ssL504L
(dp625
g3
L90L
sg4
Vcours-de-judo
p626
ssL506L
(dp627
g3
L48L
sg4
Vlieu-de-loisirs
p628
ssL508L
(dp629
g3
L90L
sg4
Vcours-de-volley
p630
ssL510L
(dp631
g3
L213L
sg4
Vvol-en-avion
p632
ssL512L
(dp633
g3
L13L
sg4
Vconcert-funk
p634
ssL514L
(dp635
g3
L193L
sg4
Vorganisateur-d-evenement
p636
ssL516L
(dp637
g3
L196L
sg4
Vsaut-en-parachute
p638
ssL518L
(dp639
g3
L48L
sg4
Vlieu-d-exposition
p640
ssL522L
(dp641
g3
L88L
sg4
Vbar-cafe-concert-dj-1
p642
ssL524L
(dp643
g3
L538L
sg4
Vcabaret-resto-concert
p644
ssL526L
(dp645
g3
L92L
sg4
Vcafe-theatre-1
p646
ssL528L
(dp647
g3
L560L
sg4
Vcinema-1
p648
ssL530L
(dp649
g3
L506L
sg4
Vcirque-1
p650
ssL532L
(dp651
g3
L538L
sg4
Vclub-discotheque
p652
ssL534L
(dp653
g3
L48L
sg4
Vlieu-de-visite
p654
ssL536L
(dp655
g3
L48L
sg4
Vsalle-generaliste
p656
ssL538L
(dp657
g3
L48L
sg4
Vlieu-de-soiree
p658
ssL540L
(dp659
g3
L88L
sg4
Vscene-de-musiques-actuelle-smac
p660
ssL542L
(dp661
g3
L560L
sg4
Vsalle-d-opera
p662
ssL546L
(dp663
g3
L536L
sg4
Vzenith
p664
ssL548L
(dp665
g3
L386L
sg4
Vmjc
p666
ssL550L
(dp667
g3
L506L
sg4
Vparc-a-theme
p668
ssL552L
(dp669
g3
L92L
sg4
Vtheatre-pour-enfant
p670
ssL554L
(dp671
g3
L536L
sg4
Vcentre-de-congres
p672
ssL556L
(dp673
g3
L1L
sg4
Vrubric-off
p674
ssL558L
(dp675
g3
L217L
sg4
Vsurf
p676
ssL560L
(dp677
g3
L48L
sg4
Vsalle-de-spectacle
p678
ssL562L
(dp679
g3
L538L
sg4
Vcasino
p680
ssL564L
(dp681
g3
L386L
sg4
Vlibrairie
p682
ssL566L
(dp683
g3
L69L
sg4
Vpass-et-cartes
p684
ssL568L
(dp685
g3
L86L
sg4
Vmodelisme
p686
ssL570L
(dp687
g3
L568L
sg4
Vmodelisme-automobile
p688
ssL572L
(dp689
g3
L144L
sg4
Vexploration-urbaine
p690
ssL574L
(dp691
g3
L212L
sg4
Vafter
p692
ssL578L
(dp693
g3
L212L
sg4
Vbefore-1
p694
ssL580L
(dp695
g3
L212L
sg4
Vsoiree-etudiante
p696
ssL584L
(dp697
g3
L518L
sg4
Vgalerie
p698
ssL590L
(dp699
g3
L560L
sg4
Vcentre-choregraphique
p700
ssL592L
(dp701
g3
L150L
sg4
Vgymnase
p702
ssL594L
(dp703
g3
L85L
sg4
Vbibliotheque
p704
ssL596L
(dp705
g3
L134L
sg4
Vuniversite
p706
ssL598L
(dp707
g3
L134L
sg4
Vecole
p708
ssL600L
(dp709
g3
L150L
sg4
Vstade
p710
ssL602L
(dp711
g3
L150L
sg4
Vpatinoire-1
p712
ssL604L
(dp713
g3
L506L
sg4
Vaquarium-1
p714
ssL606L
(dp715
g3
L518L
sg4
Vmusee-1
p716
ssL608L
(dp717
g3
L534L
sg4
Vmonument-1
p718
ss.