(dp1
Vclicked
p2
(dp3
I512
I9
sI0
I75
sI2
I70
sI3
I2
sI5
I13
sI7
I15
sI9
I5
sI10
I17
sI11
I45
sI13
I28
sI14
I331
sI15
I28
sI16
I83
sI17
I1
sI18
I5
sI20
I8
sI21
I6
sI89
I7
sI24
I11
sI26
I19
sI28
I117
sI29
I44
sI30
I60
sI32
I37
sI33
I30
sI34
I69
sI35
I6
sI36
I39
sI37
I9
sI38
I2
sI39
I8
sI40
I38
sI43
I2
sI44
I10
sI558
I17
sI47
I2
sI560
I1
sI562
I5
sI52
I58
sI522
I5
sI65
I2
sI68
I11
sI71
I16
sI584
I1
sI73
I10
sI74
I2
sI75
I3
sI76
I1
sI78
I45
sI592
I1
sI83
I6
sI596
I2
sI526
I1
sI612
I1
sI91
I149
sI92
I4
sI93
I58
sI606
I4
sI95
I1
sI97
I34
sI98
I3
sI99
I27
sI100
I15
sI101
I34
sI614
I2
sI105
I3
sI618
I4
sI620
I4
sI110
I2
sI624
I4
sI113
I1
sI115
I14
sI117
I1
sI118
I278
sI119
I18
sI121
I122
sI124
I57
sI128
I41
sI132
I20
sI138
I17
sI23
I7
sI141
I20
sI143
I3
sI148
I117
sI149
I4
sI670
I2
sI161
I58
sI164
I39
sI167
I206
sI168
I39
sI540
I2
sI170
I28
sI171
I9
sI172
I3
sI174
I78
sI177
I17
sI180
I5
sI184
I2
sI185
I5
sI187
I40
sI532
I1
sI552
I2
sI209
I1
sI210
I1
sI214
I3
sI215
I32
sI548
I2
sI218
I4
sI220
I25
sI223
I3
sI224
I12
sI229
I7
sI230
I13
sI231
I32
sI240
I36
sI241
I8
sI245
I17
sI246
I13
sI247
I45
sI250
I7
sI251
I1139
sI252
I1
sI253
I18
sI255
I22
sI256
I23
sI257
I13
sI258
I200
sI259
I5
sI260
I27
sI261
I120
sI263
I6
sI265
I8
sI266
I3
sI267
I6
sI269
I7
sI270
I3
sI272
I4
sI274
I65
sI278
I31
sI282
I6
sI284
I25
sI288
I7
sI294
I1
sI318
I1
sI328
I8
sI340
I2
sI344
I6
sI348
I4
sI354
I1
sI360
I1
sI362
I5
sI364
I9
sI366
I2
sI368
I10
sI370
I3
sI374
I1
sI378
I1
sI382
I4
sI388
I1
sI394
I29
sI400
I10
sI406
I3
sI410
I22
sI420
I9
sI422
I1
sI424
I14
sI426
I13
sI430
I8
sI432
I31
sI436
I5
sI438
I7
sI440
I74
sI442
I1
sI444
I163
sI448
I3
sI454
I10
sI458
I11
sI460
I7
sI462
I1
sI464
I4
sI466
I4
sI468
I11
sI590
I1
sI476
I34
sI478
I3
sI480
I14
sI490
I1
sI492
I6
sI494
I2
sI496
I6
sI498
I5
sI500
I7
sI502
I6
sI508
I1
sI510
I3
sI85
I1
ss.