(dp1
Vclicked
p2
(dp3
I512
I2
sI0
I2
sI2
I9
sI3
I1
sI5
I2
sI7
I1
sI9
I3
sI10
I3
sI11
I6
sI13
I5
sI14
I50
sI15
I5
sI16
I16
sI18
I2
sI89
I3
sI24
I2
sI26
I2
sI28
I27
sI29
I7
sI30
I8
sI32
I2
sI33
I10
sI34
I19
sI35
I1
sI36
I6
sI39
I1
sI40
I12
sI44
I3
sI558
I1
sI560
I1
sI562
I1
sI52
I7
sI522
I1
sI65
I1
sI68
I2
sI73
I2
sI74
I1
sI78
I2
sI83
I1
sI596
I2
sI612
I1
sI91
I17
sI93
I9
sI606
I2
sI97
I1
sI99
I6
sI100
I3
sI101
I3
sI620
I1
sI624
I2
sI113
I1
sI115
I5
sI117
I1
sI118
I39
sI119
I2
sI121
I25
sI124
I9
sI132
I4
sI138
I3
sI141
I3
sI143
I1
sI148
I18
sI149
I3
sI670
I1
sI161
I9
sI164
I6
sI167
I34
sI168
I8
sI170
I6
sI171
I1
sI172
I1
sI174
I7
sI177
I1
sI184
I1
sI187
I14
sI209
I1
sI214
I1
sI548
I2
sI218
I2
sI220
I5
sI224
I2
sI229
I2
sI231
I6
sI240
I7
sI241
I1
sI245
I3
sI246
I2
sI247
I3
sI250
I3
sI251
I6
sI253
I3
sI255
I2
sI256
I6
sI258
I53
sI259
I3
sI261
I20
sI263
I1
sI265
I1
sI266
I1
sI267
I4
sI269
I1
sI270
I1
sI274
I4
sI278
I3
sI282
I1
sI284
I3
sI288
I1
sI328
I2
sI340
I1
sI344
I2
sI348
I1
sI364
I5
sI368
I2
sI370
I2
sI378
I1
sI382
I2
sI394
I4
sI400
I2
sI406
I1
sI410
I3
sI420
I1
sI424
I3
sI426
I3
sI432
I8
sI436
I2
sI438
I1
sI440
I2
sI444
I9
sI448
I3
sI454
I2
sI458
I2
sI460
I1
sI464
I1
sI468
I1
sI590
I1
sI476
I4
sI480
I1
sI492
I1
sI496
I1
sI500
I1
sI502
I2
sI510
I1
ssVappear
p4
(dp5
I512
I124
sI0
I63
sI2
I744
sI3
I24
sI5
I84
sI7
I34
sI9
I117
sI10
I266
sI11
I292
sI12
I14
sI13
I439
sI14
I1352
sI15
I339
sI16
I1118
sI17
I2
sI18
I28
sI20
I83
sI21
I55
sI22
I7
sI23
I57
sI24
I109
sI26
I80
sI28
I888
sI29
I205
sI30
I679
sI32
I122
sI33
I114
sI34
I419
sI35
I53
sI36
I224
sI37
I34
sI38
I11
sI39
I124
sI40
I200
sI554
I6
sI43
I49
sI44
I85
sI558
I253
sI560
I3
sI562
I17
sI52
I301
sI522
I77
sI65
I38
sI68
I41
sI70
I1
sI71
I41
sI584
I17
sI73
I60
sI74
I31
sI75
I27
sI76
I15
sI78
I284
sI594
I17
sI83
I28
sI596
I17
sI526
I1
sI598
I15
sI88
I7
sI89
I49
sI602
I1
sI91
I980
sI92
I15
sI93
I293
sI606
I71
sI95
I1
sI96
I11
sI97
I175
sI98
I23
sI99
I223
sI100
I177
sI101
I387
sI614
I2
sI600
I5
sI105
I15
sI618
I52
sI620
I53
sI110
I11
sI624
I32
sI113
I14
sI626
I4
sI115
I118
sI117
I36
sI118
I2317
sI119
I108
sI632
I1
sI121
I1077
sI634
I6
sI124
I361
sI128
I15
sI132
I94
sI108
I1
sI138
I166
sI141
I176
sI143
I24
sI144
I1
sI148
I666
sI149
I29
sI161
I81
sI164
I185
sI167
I1472
sI168
I887
sI540
I15
sI170
I453
sI171
I75
sI172
I28
sI173
I24
sI174
I238
sI177
I425
sI180
I15
sI542
I10
sI182
I5
sI184
I27
sI185
I46
sI187
I532
sI532
I3
sI552
I8
sI546
I4
sI209
I3
sI211
I5
sI212
I2
sI214
I15
sI215
I1
sI548
I19
sI218
I98
sI220
I150
sI223
I75
sI224
I62
sI227
I3
sI229
I62
sI230
I31
sI231
I85
sI636
I7
sI236
I15
sI240
I280
sI241
I80
sI245
I31
sI246
I52
sI247
I334
sI248
I27
sI250
I64
sI251
I149
sI252
I12
sI253
I228
sI254
I14
sI255
I57
sI256
I334
sI257
I25
sI258
I1194
sI259
I24
sI260
I26
sI261
I638
sI263
I24
sI265
I23
sI266
I18
sI267
I20
sI269
I139
sI270
I39
sI272
I12
sI274
I214
sI278
I383
sI282
I87
sI284
I178
sI288
I43
sI292
I1
sI564
I4
sI318
I18
sI328
I30
sI340
I21
sI342
I3
sI344
I21
sI348
I33
sI354
I17
sI356
I8
sI360
I15
sI362
I18
sI364
I118
sI366
I13
sI368
I125
sI370
I125
sI372
I31
sI374
I26
sI524
I3
sI376
I3
sI378
I47
sI382
I85
sI386
I16
sI388
I13
sI394
I142
sI400
I71
sI406
I48
sI410
I117
sI420
I39
sI422
I13
sI424
I116
sI426
I52
sI430
I73
sI432
I310
sI434
I1
sI436
I23
sI438
I26
sI440
I166
sI442
I6
sI444
I129
sI448
I120
sI452
I27
sI502
I37
sI454
I51
sI456
I2
sI458
I36
sI460
I30
sI462
I19
sI464
I11
sI612
I8
sI466
I25
sI468
I59
sI590
I4
sI476
I56
sI478
I43
sI480
I18
sI488
I26
sI490
I4
sI492
I11
sI494
I7
sI496
I66
sI498
I31
sI500
I18
sI528
I3
sI504
I4
sI508
I8
sI510
I40
sI85
I11
ss.