(dp1
Vclicked
p2
(dp3
I512
I2
sI2
I26
sI5
I3
sI7
I2
sI522
I1
sI11
I1
sI12
I2
sI13
I4
sI14
I33
sI16
I13
sI21
I1
sI24
I1
sI26
I2
sI28
I8
sI29
I18
sI30
I3
sI33
I1
sI34
I4
sI35
I2
sI36
I16
sI39
I1
sI40
I5
sI554
I1
sI43
I1
sI44
I1
sI558
I7
sI562
I2
sI564
I1
sI65
I2
sI68
I1
sI71
I1
sI584
I2
sI74
I1
sI78
I7
sI87
I1
sI89
I1
sI91
I9
sI93
I2
sI606
I2
sI96
I1
sI97
I2
sI98
I1
sI99
I2
sI101
I12
sI624
I1
sI113
I1
sI115
I3
sI118
I25
sI121
I24
sI124
I6
sI138
I1
sI141
I2
sI148
I14
sI161
I17
sI164
I6
sI167
I28
sI168
I7
sI170
I4
sI172
I13
sI174
I18
sI177
I4
sI187
I19
sI218
I6
sI220
I7
sI223
I9
sI230
I1
sI240
I18
sI241
I6
sI246
I2
sI247
I3
sI250
I1
sI251
I1
sI253
I5
sI255
I1
sI256
I3
sI257
I1
sI258
I61
sI259
I2
sI260
I1
sI261
I9
sI263
I1
sI269
I3
sI270
I1
sI274
I12
sI278
I4
sI282
I2
sI284
I3
sI52
I5
sI364
I3
sI368
I3
sI372
I1
sI378
I1
sI382
I1
sI386
I1
sI388
I2
sI394
I1
sI400
I1
sI410
I5
sI420
I2
sI424
I5
sI426
I3
sI432
I3
sI434
I1
sI436
I4
sI438
I2
sI440
I2
sI442
I2
sI444
I1
sI454
I1
sI458
I1
sI460
I1
sI464
I1
sI466
I3
sI468
I2
sI476
I4
sI492
I1
sI502
I3
sI510
I4
ssVappear
p4
(dp5
I512
I57
sI0
I36
sI2
I803
sI3
I25
sI5
I110
sI7
I40
sI9
I101
sI10
I157
sI11
I257
sI524
I6
sI13
I265
sI14
I1050
sI15
I276
sI16
I1092
sI600
I4
sI18
I22
sI20
I52
sI21
I41
sI22
I6
sI23
I47
sI24
I57
sI26
I92
sI28
I861
sI29
I619
sI30
I471
sI32
I77
sI33
I80
sI34
I90
sI35
I41
sI36
I424
sI37
I33
sI38
I11
sI39
I129
sI40
I322
sI604
I1
sI554
I2
sI43
I31
sI44
I22
sI558
I213
sI560
I2
sI562
I11
sI564
I9
sI522
I79
sI65
I33
sI68
I54
sI71
I64
sI584
I32
sI73
I36
sI74
I42
sI75
I14
sI76
I21
sI78
I293
sI594
I17
sI83
I88
sI596
I8
sI85
I13
sI598
I12
sI87
I2
sI88
I6
sI89
I23
sI602
I3
sI91
I856
sI92
I30
sI93
I228
sI606
I87
sI95
I2
sI96
I16
sI97
I211
sI98
I23
sI99
I108
sI100
I55
sI101
I394
sI17
I7
sI105
I13
sI618
I25
sI620
I44
sI110
I74
sI624
I17
sI113
I15
sI626
I1
sI115
I171
sI117
I40
sI118
I1953
sI119
I78
sI632
I2
sI121
I728
sI634
I6
sI124
I201
sI128
I11
sI132
I75
sI135
I1
sI138
I178
sI141
I107
sI143
I31
sI148
I507
sI366
I14
sI161
I230
sI526
I3
sI164
I221
sI167
I1267
sI168
I643
sI540
I28
sI170
I214
sI171
I65
sI172
I119
sI173
I3
sI174
I162
sI177
I473
sI180
I16
sI542
I9
sI182
I3
sI184
I18
sI185
I58
sI187
I584
sI532
I17
sI552
I2
sI546
I5
sI209
I5
sI211
I5
sI214
I18
sI215
I4
sI548
I5
sI218
I115
sI220
I120
sI223
I72
sI224
I44
sI227
I1
sI229
I88
sI230
I23
sI231
I53
sI636
I8
sI236
I6
sI240
I178
sI241
I57
sI245
I52
sI246
I92
sI247
I435
sI248
I1
sI250
I69
sI251
I159
sI252
I19
sI253
I294
sI254
I12
sI255
I97
sI256
I219
sI257
I30
sI258
I1450
sI259
I27
sI260
I29
sI261
I607
sI263
I24
sI265
I15
sI266
I17
sI267
I20
sI268
I1
sI269
I70
sI270
I41
sI272
I2
sI274
I257
sI278
I319
sI282
I34
sI284
I109
sI288
I57
sI52
I192
sI318
I31
sI328
I14
sI340
I34
sI342
I6
sI344
I25
sI348
I3
sI354
I7
sI356
I1
sI360
I13
sI362
I19
sI364
I175
sI12
I11
sI368
I134
sI370
I67
sI372
I28
sI374
I17
sI376
I2
sI378
I24
sI382
I23
sI149
I7
sI384
I3
sI386
I18
sI388
I12
sI394
I69
sI400
I67
sI406
I37
sI410
I112
sI514
I1
sI420
I30
sI422
I9
sI424
I138
sI426
I64
sI430
I41
sI432
I99
sI434
I5
sI436
I42
sI438
I23
sI440
I102
sI442
I8
sI444
I168
sI448
I46
sI454
I65
sI456
I2
sI458
I39
sI460
I37
sI462
I19
sI528
I2
sI464
I8
sI612
I14
sI466
I56
sI468
I70
sI590
I6
sI474
I1
sI476
I69
sI478
I17
sI480
I11
sI488
I19
sI490
I8
sI492
I15
sI494
I5
sI496
I94
sI498
I23
sI500
I7
sI502
I33
sI504
I3
sI508
I8
sI510
I47
ss.