(dp1
Vclicked
p2
(dp3
I512
I8
sI0
I49
sI2
I65
sI5
I8
sI7
I10
sI9
I9
sI10
I17
sI11
I34
sI12
I1
sI13
I50
sI14
I186
sI15
I16
sI16
I82
sI17
I4
sI18
I1
sI20
I8
sI21
I1
sI23
I3
sI24
I11
sI26
I13
sI28
I104
sI29
I59
sI30
I73
sI32
I25
sI33
I42
sI34
I26
sI35
I5
sI36
I26
sI37
I9
sI38
I1
sI39
I4
sI40
I52
sI43
I3
sI44
I1
sI558
I31
sI562
I3
sI52
I26
sI522
I7
sI65
I2
sI68
I4
sI71
I25
sI584
I2
sI73
I17
sI74
I5
sI75
I9
sI76
I2
sI78
I34
sI83
I4
sI526
I1
sI89
I3
sI91
I123
sI604
I1
sI93
I21
sI606
I2
sI96
I3
sI97
I12
sI98
I4
sI99
I13
sI100
I20
sI101
I27
sI104
I1
sI105
I6
sI618
I3
sI620
I1
sI110
I2
sI624
I1
sI113
I1
sI115
I8
sI118
I257
sI119
I25
sI121
I79
sI124
I35
sI125
I1
sI128
I10
sI132
I8
sI138
I23
sI141
I16
sI143
I1
sI148
I62
sI161
I37
sI164
I36
sI167
I139
sI168
I61
sI170
I18
sI171
I7
sI172
I15
sI174
I54
sI177
I22
sI180
I3
sI184
I1
sI185
I8
sI187
I18
sI546
I4
sI212
I7
sI215
I10
sI218
I9
sI220
I19
sI223
I27
sI224
I4
sI229
I7
sI230
I17
sI231
I7
sI240
I36
sI241
I12
sI245
I4
sI246
I12
sI247
I12
sI248
I6
sI250
I7
sI251
I378
sI252
I2
sI253
I10
sI255
I17
sI256
I21
sI257
I5
sI258
I118
sI259
I3
sI260
I3
sI261
I90
sI263
I2
sI265
I11
sI266
I6
sI267
I3
sI269
I4
sI270
I2
sI272
I4
sI274
I36
sI278
I70
sI282
I26
sI284
I16
sI288
I1
sI328
I1
sI340
I5
sI344
I2
sI348
I2
sI354
I8
sI356
I3
sI362
I6
sI364
I7
sI368
I4
sI370
I2
sI374
I1
sI378
I1
sI382
I3
sI386
I1
sI388
I6
sI394
I7
sI400
I13
sI410
I18
sI420
I10
sI422
I1
sI424
I11
sI426
I5
sI430
I2
sI432
I13
sI436
I10
sI438
I7
sI440
I27
sI442
I4
sI444
I47
sI448
I1
sI452
I1
sI454
I3
sI458
I2
sI460
I8
sI464
I4
sI466
I5
sI468
I7
sI476
I12
sI478
I7
sI480
I8
sI496
I4
sI498
I13
sI500
I3
sI502
I5
sI504
I1
sI508
I1
sI510
I9
ss.