(dp1
Vclicked
p2
(dp3
I512
I18
sI0
I111
sI2
I137
sI3
I1
sI5
I12
sI7
I19
sI9
I11
sI522
I11
sI11
I65
sI12
I6
sI13
I74
sI14
I437
sI15
I31
sI16
I122
sI17
I7
sI18
I3
sI20
I11
sI21
I5
sI23
I17
sI24
I15
sI26
I38
sI28
I219
sI29
I99
sI30
I108
sI32
I52
sI33
I70
sI34
I70
sI35
I12
sI548
I1
sI37
I12
sI38
I5
sI39
I5
sI40
I81
sI604
I1
sI554
I1
sI43
I16
sI44
I8
sI558
I57
sI562
I7
sI52
I90
sI570
I1
sI10
I40
sI65
I11
sI68
I14
sI71
I36
sI584
I3
sI73
I36
sI74
I13
sI75
I18
sI76
I2
sI78
I60
sI83
I9
sI596
I1
sI526
I1
sI86
I2
sI87
I1
sI88
I2
sI89
I8
sI91
I183
sI92
I3
sI93
I46
sI606
I6
sI96
I3
sI97
I30
sI98
I5
sI99
I20
sI100
I53
sI101
I75
sI104
I1
sI105
I7
sI618
I3
sI620
I6
sI110
I3
sI624
I3
sI113
I5
sI115
I19
sI117
I2
sI118
I460
sI119
I37
sI121
I177
sI124
I61
sI125
I1
sI128
I35
sI132
I16
sI138
I47
sI141
I37
sI143
I1
sI148
I160
sI161
I106
sI164
I56
sI167
I241
sI168
I121
sI170
I40
sI171
I13
sI172
I21
sI173
I1
sI174
I94
sI177
I35
sI180
I4
sI182
I1
sI184
I7
sI185
I12
sI187
I51
sI546
I4
sI211
I1
sI212
I10
sI214
I1
sI215
I10
sI36
I72
sI218
I22
sI220
I61
sI223
I40
sI224
I9
sI229
I14
sI230
I28
sI231
I29
sI240
I79
sI241
I24
sI245
I7
sI246
I22
sI247
I37
sI248
I11
sI250
I9
sI251
I1044
sI252
I6
sI253
I22
sI255
I31
sI256
I36
sI257
I17
sI258
I321
sI259
I6
sI260
I11
sI261
I209
sI263
I5
sI265
I29
sI266
I8
sI267
I7
sI269
I13
sI270
I4
sI272
I4
sI274
I54
sI278
I92
sI280
I1
sI282
I40
sI284
I30
sI288
I7
sI294
I2
sI564
I1
sI318
I5
sI328
I3
sI340
I6
sI344
I4
sI348
I8
sI354
I10
sI356
I6
sI362
I8
sI364
I18
sI368
I11
sI370
I6
sI372
I1
sI374
I1
sI524
I2
sI378
I3
sI382
I11
sI386
I3
sI388
I24
sI394
I11
sI400
I18
sI406
I3
sI410
I40
sI420
I27
sI422
I1
sI424
I18
sI426
I7
sI430
I4
sI432
I24
sI434
I1
sI436
I12
sI438
I19
sI440
I81
sI442
I9
sI444
I120
sI448
I3
sI452
I1
sI454
I13
sI458
I10
sI460
I16
sI462
I1
sI464
I7
sI466
I14
sI468
I10
sI476
I32
sI478
I9
sI480
I11
sI488
I2
sI492
I2
sI494
I4
sI496
I9
sI498
I22
sI500
I8
sI502
I10
sI504
I1
sI508
I1
sI510
I14
ss.